target datalayout = "e-m:e-p270:32:32-p271:32:32-p272:64:64-i64:64-i128:128-f80:128-n8:16:32:64-S128"
target triple = "x86_64-pc-linux-gnu"

%struct.dtoa_context = type { [8 x ptr], ptr }
%struct.Bigint = type { ptr, i32, i32, i32, i32, [1 x i32] }

; Function Attrs: nounwind uwtable
define internal void @Bfree(ptr noundef %0, ptr noundef %1) #0 {
  %3 = alloca ptr, align 8
  %4 = alloca ptr, align 8
  store ptr %0, ptr %3, align 8, !tbaa !4
  store ptr %1, ptr %4, align 8, !tbaa !11
  %5 = load ptr, ptr %4, align 8, !tbaa !11
  %6 = icmp ne ptr %5, null
  br i1 %6, label %7, label %34

7:                                                ; preds = %2
  %8 = load ptr, ptr %4, align 8, !tbaa !11
  %9 = getelementptr inbounds nuw %struct.Bigint, ptr %8, i32 0, i32 1
  %10 = load i32, ptr %9, align 8, !tbaa !22
  %11 = icmp sgt i32 %10, 7
  br i1 %11, label %12, label %14

12:                                               ; preds = %7
  %13 = load ptr, ptr %4, align 8, !tbaa !11
  call void @jv_mem_free(ptr noundef %13)
  br label %33

14:                                               ; preds = %7
  %15 = load ptr, ptr %3, align 8, !tbaa !4
  %16 = getelementptr inbounds nuw %struct.dtoa_context, ptr %15, i32 0, i32 0
  %17 = load ptr, ptr %4, align 8, !tbaa !11
  %18 = getelementptr inbounds nuw %struct.Bigint, ptr %17, i32 0, i32 1
  %19 = load i32, ptr %18, align 8, !tbaa !22
  %20 = sext i32 %19 to i64
  %21 = getelementptr inbounds [8 x ptr], ptr %16, i64 0, i64 %20
  %22 = load ptr, ptr %21, align 8, !tbaa !11
  %23 = load ptr, ptr %4, align 8, !tbaa !11
  %24 = getelementptr inbounds nuw %struct.Bigint, ptr %23, i32 0, i32 0
  store ptr %22, ptr %24, align 8, !tbaa !17
  %25 = load ptr, ptr %4, align 8, !tbaa !11
  %26 = load ptr, ptr %3, align 8, !tbaa !4
  %27 = getelementptr inbounds nuw %struct.dtoa_context, ptr %26, i32 0, i32 0
  %28 = load ptr, ptr %4, align 8, !tbaa !11
  %29 = getelementptr inbounds nuw %struct.Bigint, ptr %28, i32 0, i32 1
  %30 = load i32, ptr %29, align 8, !tbaa !22
  %31 = sext i32 %30 to i64
  %32 = getelementptr inbounds [8 x ptr], ptr %27, i64 0, i64 %31
  store ptr %25, ptr %32, align 8, !tbaa !11
  br label %33

33:                                               ; preds = %14, %12
  br label %34

34:                                               ; preds = %33, %2
  ret void
}

; Function Attrs: nounwind uwtable
define dso_local void @jvp_dtoa_context_free(ptr noundef %0) #0 {
  %2 = alloca ptr, align 8
  %3 = alloca i32, align 4
  %4 = alloca ptr, align 8
  %5 = alloca ptr, align 8
  store ptr %0, ptr %2, align 8, !tbaa !4
  call void @llvm.lifetime.start.p0(i64 4, ptr %3) #6
  br label %6

6:                                                ; preds = %11, %1
  %7 = load ptr, ptr %2, align 8, !tbaa !4
  %8 = getelementptr inbounds nuw %struct.dtoa_context, ptr %7, i32 0, i32 1
  %9 = load ptr, ptr %8, align 8, !tbaa !15
  %10 = icmp ne ptr %9, null
  br i1 %10, label %11, label %22

11:                                               ; preds = %6
  call void @llvm.lifetime.start.p0(i64 8, ptr %4) #6
  %12 = load ptr, ptr %2, align 8, !tbaa !4
  %13 = getelementptr inbounds nuw %struct.dtoa_context, ptr %12, i32 0, i32 1
  %14 = load ptr, ptr %13, align 8, !tbaa !15
  store ptr %14, ptr %4, align 8, !tbaa !11
  %15 = load ptr, ptr %4, align 8, !tbaa !11
  %16 = getelementptr inbounds nuw %struct.Bigint, ptr %15, i32 0, i32 0
  %17 = load ptr, ptr %16, align 8, !tbaa !17
  %18 = load ptr, ptr %2, align 8, !tbaa !4
  %19 = getelementptr inbounds nuw %struct.dtoa_context, ptr %18, i32 0, i32 1
  store ptr %17, ptr %19, align 8, !tbaa !15
  %20 = load ptr, ptr %2, align 8, !tbaa !4
  %21 = load ptr, ptr %4, align 8, !tbaa !11
  call void @Bfree(ptr noundef %20, ptr noundef %21)
  call void @llvm.lifetime.end.p0(i64 8, ptr %4) #6
  br label %6, !llvm.loop !19

22:                                               ; preds = %6
  store i32 0, ptr %3, align 4, !tbaa !9
  br label %23

23:                                               ; preds = %52, %22
  %24 = load i32, ptr %3, align 4, !tbaa !9
  %25 = icmp slt i32 %24, 8
  br i1 %25, label %26, label %55

26:                                               ; preds = %23
  br label %27

27:                                               ; preds = %35, %26
  %28 = load ptr, ptr %2, align 8, !tbaa !4
  %29 = getelementptr inbounds nuw %struct.dtoa_context, ptr %28, i32 0, i32 0
  %30 = load i32, ptr %3, align 4, !tbaa !9
  %31 = sext i32 %30 to i64
  %32 = getelementptr inbounds [8 x ptr], ptr %29, i64 0, i64 %31
  %33 = load ptr, ptr %32, align 8, !tbaa !11
  %34 = icmp ne ptr %33, null
  br i1 %34, label %35, label %51

35:                                               ; preds = %27
  call void @llvm.lifetime.start.p0(i64 8, ptr %5) #6
  %36 = load ptr, ptr %2, align 8, !tbaa !4
  %37 = getelementptr inbounds nuw %struct.dtoa_context, ptr %36, i32 0, i32 0
  %38 = load i32, ptr %3, align 4, !tbaa !9
  %39 = sext i32 %38 to i64
  %40 = getelementptr inbounds [8 x ptr], ptr %37, i64 0, i64 %39
  %41 = load ptr, ptr %40, align 8, !tbaa !11
  store ptr %41, ptr %5, align 8, !tbaa !11
  %42 = load ptr, ptr %5, align 8, !tbaa !11
  %43 = getelementptr inbounds nuw %struct.Bigint, ptr %42, i32 0, i32 0
  %44 = load ptr, ptr %43, align 8, !tbaa !17
  %45 = load ptr, ptr %2, align 8, !tbaa !4
  %46 = getelementptr inbounds nuw %struct.dtoa_context, ptr %45, i32 0, i32 0
  %47 = load i32, ptr %3, align 4, !tbaa !9
  %48 = sext i32 %47 to i64
  %49 = getelementptr inbounds [8 x ptr], ptr %46, i64 0, i64 %48
  store ptr %44, ptr %49, align 8, !tbaa !11
  %50 = load ptr, ptr %5, align 8, !tbaa !11
  call void @jv_mem_free(ptr noundef %50)
  call void @llvm.lifetime.end.p0(i64 8, ptr %5) #6
  br label %27, !llvm.loop !20

51:                                               ; preds = %27
  br label %52

52:                                               ; preds = %51
  %53 = load i32, ptr %3, align 4, !tbaa !9
  %54 = add nsw i32 %53, 1
  store i32 %54, ptr %3, align 4, !tbaa !9
  br label %23, !llvm.loop !21

55:                                               ; preds = %23
  call void @llvm.lifetime.end.p0(i64 4, ptr %3) #6
  ret void
}