; Function Attrs: nounwind uwtable
define dso_local void @jvp_dtoa_context_free(ptr noundef captures(none) %0) local_unnamed_addr #2 {
  %2 = getelementptr inbounds nuw i8, ptr %0, i64 64
  %3 = load ptr, ptr %2, align 8, !tbaa !4
  %.not19 = icmp eq ptr %3, null
  br i1 %.not19, label %.preheader.preheader, label %.lr.ph

.lr.ph:                                           ; preds = %1, %Bfree.exit
  %4 = phi ptr [ %14, %Bfree.exit ], [ %3, %1 ]
  %5 = load ptr, ptr %4, align 8, !tbaa !10
  store ptr %5, ptr %2, align 8, !tbaa !4
  %6 = getelementptr inbounds nuw i8, ptr %4, i64 8
  %7 = load i32, ptr %6, align 8, !tbaa !13
  %8 = icmp sgt i32 %7, 7
  br i1 %8, label %9, label %10

9:                                                ; preds = %.lr.ph
  tail call void @jv_mem_free(ptr noundef nonnull %4) #11
  br label %Bfree.exit

10:                                               ; preds = %.lr.ph
  %11 = sext i32 %7 to i64
  %12 = getelementptr inbounds [8 x ptr], ptr %0, i64 0, i64 %11
  %13 = load ptr, ptr %12, align 8, !tbaa !14
  store ptr %13, ptr %4, align 8, !tbaa !10
  store ptr %4, ptr %12, align 8, !tbaa !14
  br label %Bfree.exit

Bfree.exit:                                       ; preds = %9, %10
  %14 = load ptr, ptr %2, align 8, !tbaa !4
  %.not = icmp eq ptr %14, null
  br i1 %.not, label %.preheader.preheader, label %.lr.ph, !llvm.loop !15

.preheader.preheader:                             ; preds = %Bfree.exit, %1
  br label %.preheader

.preheader:                                       ; preds = %.preheader.preheader, %._crit_edge
  %indvars.iv = phi i64 [ %indvars.iv.next, %._crit_edge ], [ 0, %.preheader.preheader ]
  %15 = getelementptr inbounds nuw [8 x ptr], ptr %0, i64 0, i64 %indvars.iv
  %16 = load ptr, ptr %15, align 8, !tbaa !14
  %.not1720 = icmp eq ptr %16, null
  br i1 %.not1720, label %._crit_edge, label %.lr.ph21

.lr.ph21:                                         ; preds = %.preheader, %.lr.ph21
  %17 = phi ptr [ %19, %.lr.ph21 ], [ %16, %.preheader ]
  %18 = load ptr, ptr %17, align 8, !tbaa !10
  store ptr %18, ptr %15, align 8, !tbaa !14
  tail call void @jv_mem_free(ptr noundef nonnull %17) #11
  %19 = load ptr, ptr %15, align 8, !tbaa !14
  %.not17 = icmp eq ptr %19, null
  br i1 %.not17, label %._crit_edge, label %.lr.ph21, !llvm.loop !17

._crit_edge:                                      ; preds = %.lr.ph21, %.preheader
  %indvars.iv.next = add nuw nsw i64 %indvars.iv, 1
  %exitcond.not = icmp eq i64 %indvars.iv.next, 8
  br i1 %exitcond.not, label %20, label %.preheader, !llvm.loop !18

20:                                               ; preds = %._crit_edge
  ret void
}